target datalayout = "e-m:e-p270:32:32-p271:32:32-p272:64:64-i64:64-i128:128-f80:128-n8:16:32:64-S128"
target triple = "x86_64-pc-linux-gnu"

%"struct.duckdb::roaring::ContainerCompressionState" = type { i16, i8, i16, i16, i8, ptr, ptr, [2 x ptr], [2 x ptr], [4 x %"struct.duckdb::roaring::RunContainerRLEPair"], [2 x [8 x i16]], i16, [2 x i16], [2 x ptr], ptr, [2 x [248 x i8]], [248 x i8], [2 x [8 x i8]], [8 x i8], ptr, i8, ptr }
%"struct.duckdb::roaring::RunContainerRLEPair" = type { i16, i16 }

; Function Attrs: mustprogress uwtable
define void @_ZN6duckdb7roaring25ContainerCompressionState6AppendEbt(ptr noundef nonnull align 8 dereferenceable(936) %0, i1 noundef zeroext %1, i16 noundef zeroext %2) #0 align 2 {
  %4 = alloca ptr, align 8
  %5 = alloca i8, align 1
  %6 = alloca i16, align 2
  store ptr %0, ptr %4, align 8, !tbaa !331
  %7 = zext i1 %1 to i8
  store i8 %7, ptr %5, align 1, !tbaa !136
  store i16 %2, ptr %6, align 2, !tbaa !137
  %8 = load ptr, ptr %4, align 8
  %9 = getelementptr inbounds nuw %"struct.duckdb::roaring::ContainerCompressionState", ptr %8, i32 0, i32 21
  %10 = load ptr, ptr %9, align 8, !tbaa !347
  %11 = load i8, ptr %5, align 1, !tbaa !136, !range !278, !noundef !279
  %12 = trunc i8 %11 to i1
  %13 = load i16, ptr %6, align 2, !tbaa !137
  call void %10(ptr noundef nonnull align 8 dereferenceable(936) %8, i1 noundef zeroext %12, i16 noundef zeroext %13)
  %14 = load i8, ptr %5, align 1, !tbaa !136, !range !278, !noundef !279
  %15 = trunc i8 %14 to i1
  %16 = getelementptr inbounds nuw %"struct.duckdb::roaring::ContainerCompressionState", ptr %8, i32 0, i32 4
  %17 = zext i1 %15 to i8
  store i8 %17, ptr %16, align 8, !tbaa !338
  %18 = load i8, ptr %5, align 1, !tbaa !136, !range !278, !noundef !279
  %19 = trunc i8 %18 to i1
  %20 = zext i1 %19 to i32
  %21 = load i16, ptr %6, align 2, !tbaa !137
  %22 = zext i16 %21 to i32
  %23 = mul nsw i32 %20, %22
  %24 = getelementptr inbounds nuw %"struct.duckdb::roaring::ContainerCompressionState", ptr %8, i32 0, i32 3
  %25 = load i16, ptr %24, align 2, !tbaa !337
  %26 = zext i16 %25 to i32
  %27 = add nsw i32 %26, %23
  %28 = trunc i32 %27 to i16
  store i16 %28, ptr %24, align 2, !tbaa !337
  %29 = load i16, ptr %6, align 2, !tbaa !137
  %30 = zext i16 %29 to i32
  %31 = getelementptr inbounds nuw %"struct.duckdb::roaring::ContainerCompressionState", ptr %8, i32 0, i32 2
  %32 = load i16, ptr %31, align 4, !tbaa !336
  %33 = zext i16 %32 to i32
  %34 = add nsw i32 %33, %30
  %35 = trunc i32 %34 to i16
  store i16 %35, ptr %31, align 4, !tbaa !336
  ret void
}