; Function Attrs: mustprogress uwtable
define void @_ZN6duckdb7roaring25ContainerCompressionState6AppendEbt(ptr noundef nonnull align 8 dereferenceable(936) %0, i1 noundef zeroext %1, i16 noundef zeroext %2) local_unnamed_addr #0 align 2 {
  %4 = zext i1 %1 to i8
  %5 = getelementptr inbounds nuw i8, ptr %0, i64 928
  %6 = load ptr, ptr %5, align 8, !tbaa !344
  tail call void %6(ptr noundef nonnull align 8 dereferenceable(936) %0, i1 noundef zeroext %1, i16 noundef zeroext %2)
  %7 = getelementptr inbounds nuw i8, ptr %0, i64 8
  store i8 %4, ptr %7, align 8, !tbaa !343
  %8 = select i1 %1, i16 %2, i16 0
  %9 = getelementptr inbounds nuw i8, ptr %0, i64 6
  %10 = load i16, ptr %9, align 2, !tbaa !341
  %11 = add i16 %10, %8
  store i16 %11, ptr %9, align 2, !tbaa !341
  %12 = getelementptr inbounds nuw i8, ptr %0, i64 4
  %13 = load i16, ptr %12, align 4, !tbaa !340
  %14 = add i16 %13, %2
  store i16 %14, ptr %12, align 4, !tbaa !340
  ret void
}